; ModuleID = '17/281.c'
source_filename = "17/281.c"
target datalayout = "e-m:e-p270:32:32-p271:32:32-p272:64:64-i64:64-f80:128-n8:16:32:64-S128"
target triple = "x86_64-pc-linux-gnu"

@.str = private unnamed_addr constant [7 x i8] c"%s\0A%s\0A\00", align 1

; Function Attrs: noinline nounwind uwtable
define dso_local i32 @main() #0 {
  %1 = alloca i32, align 4
  %2 = alloca [101 x i8], align 16
  %3 = alloca [101 x i8], align 16
  %4 = alloca i32, align 4
  %5 = alloca i32, align 4
  %6 = alloca i32, align 4
  %7 = alloca [101 x i32], align 16
  store i32 0, i32* %1, align 4
  br label %8

8:                                                ; preds = %109, %0
  %9 = getelementptr inbounds [101 x i8], [101 x i8]* %2, i64 0, i64 0
  %10 = call i32 (i8*, ...) bitcast (i32 (...)* @gets to i32 (i8*, ...)*)(i8* %9)
  %11 = icmp ne i32 %10, 0
  br i1 %11, label %12, label %116

12:                                               ; preds = %8
  store i32 0, i32* %5, align 4
  store i32 0, i32* %4, align 4
  br label %13

13:                                               ; preds = %23, %12
  %14 = load i32, i32* %4, align 4
  %15 = sext i32 %14 to i64
  %16 = getelementptr inbounds [101 x i8], [101 x i8]* %2, i64 0, i64 0
  %17 = call i64 @strlen(i8* %16) #3
  %18 = icmp ult i64 %15, %17
  br i1 %18, label %19, label %26

19:                                               ; preds = %13
  %20 = load i32, i32* %4, align 4
  %21 = sext i32 %20 to i64
  %22 = getelementptr inbounds [101 x i32], [101 x i32]* %7, i64 0, i64 %21
  store i32 0, i32* %22, align 4
  br label %23

23:                                               ; preds = %19
  %24 = load i32, i32* %4, align 4
  %25 = add nsw i32 %24, 1
  store i32 %25, i32* %4, align 4
  br label %13

26:                                               ; preds = %13
  store i32 0, i32* %4, align 4
  br label %27

27:                                               ; preds = %106, %26
  %28 = load i32, i32* %4, align 4
  %29 = sext i32 %28 to i64
  %30 = getelementptr inbounds [101 x i8], [101 x i8]* %2, i64 0, i64 %29
  %31 = load i8, i8* %30, align 1
  %32 = sext i8 %31 to i32
  %33 = icmp ne i32 %32, 0
  br i1 %33, label %34, label %109

34:                                               ; preds = %27
  %35 = load i32, i32* %4, align 4
  %36 = sext i32 %35 to i64
  %37 = getelementptr inbounds [101 x i8], [101 x i8]* %2, i64 0, i64 %36
  %38 = load i8, i8* %37, align 1
  %39 = sext i8 %38 to i32
  %40 = icmp eq i32 %39, 40
  br i1 %40, label %41, label %50

41:                                               ; preds = %34
  %42 = load i32, i32* %4, align 4
  %43 = sext i32 %42 to i64
  %44 = getelementptr inbounds [101 x i8], [101 x i8]* %3, i64 0, i64 %43
  store i8 36, i8* %44, align 1
  %45 = load i32, i32* %5, align 4
  %46 = add nsw i32 %45, 1
  store i32 %46, i32* %5, align 4
  %47 = load i32, i32* %4, align 4
  %48 = sext i32 %47 to i64
  %49 = getelementptr inbounds [101 x i32], [101 x i32]* %7, i64 0, i64 %48
  store i32 -1, i32* %49, align 4
  br label %105

50:                                               ; preds = %34
  %51 = load i32, i32* %4, align 4
  %52 = sext i32 %51 to i64
  %53 = getelementptr inbounds [101 x i8], [101 x i8]* %2, i64 0, i64 %52
  %54 = load i8, i8* %53, align 1
  %55 = sext i8 %54 to i32
  %56 = icmp eq i32 %55, 41
  br i1 %56, label %57, label %100

57:                                               ; preds = %50
  %58 = load i32, i32* %5, align 4
  %59 = icmp ne i32 %58, 0
  br i1 %59, label %60, label %95

60:                                               ; preds = %57
  %61 = load i32, i32* %4, align 4
  store i32 %61, i32* %6, align 4
  br label %62

62:                                               ; preds = %91, %60
  %63 = load i32, i32* %6, align 4
  %64 = icmp sge i32 %63, 0
  br i1 %64, label %65, label %94

65:                                               ; preds = %62
  %66 = load i32, i32* %6, align 4
  %67 = sext i32 %66 to i64
  %68 = getelementptr inbounds [101 x i8], [101 x i8]* %2, i64 0, i64 %67
  %69 = load i8, i8* %68, align 1
  %70 = sext i8 %69 to i32
  %71 = icmp eq i32 %70, 40
  br i1 %71, label %72, label %90

72:                                               ; preds = %65
  %73 = load i32, i32* %6, align 4
  %74 = sext i32 %73 to i64
  %75 = getelementptr inbounds [101 x i32], [101 x i32]* %7, i64 0, i64 %74
  %76 = load i32, i32* %75, align 4
  %77 = icmp eq i32 %76, -1
  br i1 %77, label %78, label %90

78:                                               ; preds = %72
  %79 = load i32, i32* %6, align 4
  %80 = sext i32 %79 to i64
  %81 = getelementptr inbounds [101 x i8], [101 x i8]* %3, i64 0, i64 %80
  store i8 32, i8* %81, align 1
  %82 = load i32, i32* %4, align 4
  %83 = sext i32 %82 to i64
  %84 = getelementptr inbounds [101 x i8], [101 x i8]* %3, i64 0, i64 %83
  store i8 32, i8* %84, align 1
  %85 = load i32, i32* %5, align 4
  %86 = add nsw i32 %85, -1
  store i32 %86, i32* %5, align 4
  %87 = load i32, i32* %6, align 4
  %88 = sext i32 %87 to i64
  %89 = getelementptr inbounds [101 x i32], [101 x i32]* %7, i64 0, i64 %88
  store i32 0, i32* %89, align 4
  br label %94

90:                                               ; preds = %72, %65
  br label %91

91:                                               ; preds = %90
  %92 = load i32, i32* %6, align 4
  %93 = add nsw i32 %92, -1
  store i32 %93, i32* %6, align 4
  br label %62

94:                                               ; preds = %78, %62
  br label %99

95:                                               ; preds = %57
  %96 = load i32, i32* %4, align 4
  %97 = sext i32 %96 to i64
  %98 = getelementptr inbounds [101 x i8], [101 x i8]* %3, i64 0, i64 %97
  store i8 63, i8* %98, align 1
  br label %99

99:                                               ; preds = %95, %94
  br label %104

100:                                              ; preds = %50
  %101 = load i32, i32* %4, align 4
  %102 = sext i32 %101 to i64
  %103 = getelementptr inbounds [101 x i8], [101 x i8]* %3, i64 0, i64 %102
  store i8 32, i8* %103, align 1
  br label %104

104:                                              ; preds = %100, %99
  br label %105

105:                                              ; preds = %104, %41
  br label %106

106:                                              ; preds = %105
  %107 = load i32, i32* %4, align 4
  %108 = add nsw i32 %107, 1
  store i32 %108, i32* %4, align 4
  br label %27

109:                                              ; preds = %27
  %110 = load i32, i32* %4, align 4
  %111 = sext i32 %110 to i64
  %112 = getelementptr inbounds [101 x i8], [101 x i8]* %3, i64 0, i64 %111
  store i8 0, i8* %112, align 1
  %113 = getelementptr inbounds [101 x i8], [101 x i8]* %2, i64 0, i64 0
  %114 = getelementptr inbounds [101 x i8], [101 x i8]* %3, i64 0, i64 0
  %115 = call i32 (i8*, ...) @printf(i8* getelementptr inbounds ([7 x i8], [7 x i8]* @.str, i64 0, i64 0), i8* %113, i8* %114)
  br label %8

116:                                              ; preds = %8
  ret i32 0
}

declare dso_local i32 @gets(...) #1

; Function Attrs: nounwind readonly
declare dso_local i64 @strlen(i8*) #2

declare dso_local i32 @printf(i8*, ...) #1


!llvm.module.flags = !{!0}
!llvm.ident = !{!1}

!0 = !{i32 1, !"wchar_size", i32 4}
!1 = !{!"clang version 10.0.0-4ubuntu1 "}
